; Function Attrs: nounwind uwtable
define void @JNU_ThrowClassNotFoundException(ptr noundef %0, ptr noundef %1) local_unnamed_addr #0 {
  %3 = load ptr, ptr %0, align 8
  %4 = getelementptr inbounds i8, ptr %3, i64 48
  %5 = load ptr, ptr %4, align 8
  %6 = tail call ptr %5(ptr noundef nonnull %0, ptr noundef nonnull @.str.5) #10
  %.not.i = icmp eq ptr %6, null
  br i1 %.not.i, label %JNU_ThrowByName.exit, label %7

7:                                                ; preds = %2
  %8 = load ptr, ptr %0, align 8
  %9 = getelementptr inbounds i8, ptr %8, i64 112
  %10 = load ptr, ptr %9, align 8
  %11 = tail call i32 %10(ptr noundef nonnull %0, ptr noundef nonnull %6, ptr noundef %1) #10
  br label %JNU_ThrowByName.exit

JNU_ThrowByName.exit:                             ; preds = %2, %7
  ret void
}